; Function Attrs: mustprogress uwtable
define void @_ZN6GLArea15setupTextureEnvEj(ptr noundef nonnull align 8 dereferenceable(1676) %0, i32 noundef %1) local_unnamed_addr #9 align 2 {
  tail call void @_ZN9QGLWidget11makeCurrentEv(ptr noundef nonnull align 8 dereferenceable(48) %0)
  tail call void @glPushAttrib(i32 noundef 8192)
  tail call void @glEnable(i32 noundef 3553)
  tail call void @glBindTexture(i32 noundef 3553, i32 noundef %1)
  %3 = getelementptr inbounds i8, ptr %0, i64 1308
  %4 = load i32, ptr %3, align 4
  %5 = icmp ult i32 %4, 3
  br i1 %5, label %switch.lookup, label %7

switch.lookup:                                    ; preds = %2
  %6 = zext nneg i32 %4 to i64
  %switch.gep = getelementptr inbounds [3 x i32], ptr @switch.table._ZN6GLArea15setupTextureEnvEj, i64 0, i64 %6
  %switch.load = load i32, ptr %switch.gep, align 4
  tail call void @glTexParameteri(i32 noundef 3553, i32 noundef 10242, i32 noundef %switch.load)
  tail call void @glTexParameteri(i32 noundef 3553, i32 noundef 10243, i32 noundef %switch.load)
  br label %7

7:                                                ; preds = %2, %switch.lookup
  %8 = getelementptr inbounds i8, ptr %0, i64 1300
  %9 = load i32, ptr %8, align 4
  %10 = icmp eq i32 %9, 0
  %. = select i1 %10, i32 9728, i32 9729
  tail call void @glTexParameteri(i32 noundef 3553, i32 noundef 10240, i32 noundef %.)
  %11 = getelementptr inbounds i8, ptr %0, i64 1304
  %12 = load i32, ptr %11, align 8
  %13 = icmp eq i32 %12, 0
  %.sink3 = select i1 %13, i32 9728, i32 9987
  tail call void @glTexParameteri(i32 noundef 3553, i32 noundef 10241, i32 noundef %.sink3)
  tail call void @glTexEnvi(i32 noundef 8960, i32 noundef 8704, i32 noundef 8448)
  tail call void @glBindTexture(i32 noundef 3553, i32 noundef 0)
  tail call void @glPopAttrib()
  ret void
}